target datalayout = "e-m:e-p270:32:32-p271:32:32-p272:64:64-i64:64-i128:128-f80:128-n8:16:32:64-S128"
target triple = "x86_64-unknown-linux-gnu"

%"class.sat::literal" = type { i32 }

; Function Attrs: mustprogress uwtable
define hidden void @_ZN3smt7context9mk_clauseEN3sat7literalES2_PNS_13justificationE(ptr noundef nonnull align 8 dereferenceable(11616) %this, i32 %l1.coerce, i32 %l2.coerce, ptr noundef %j) #5 align 2 {
entry:
  %l1 = alloca %"class.sat::literal", align 4
  %l2 = alloca %"class.sat::literal", align 4
  %this.addr = alloca ptr, align 8
  %j.addr = alloca ptr, align 8
  %ls = alloca [2 x %"class.sat::literal"], align 4
  %coerce.dive = getelementptr inbounds %"class.sat::literal", ptr %l1, i32 0, i32 0
  store i32 %l1.coerce, ptr %coerce.dive, align 4
  %coerce.dive1 = getelementptr inbounds %"class.sat::literal", ptr %l2, i32 0, i32 0
  store i32 %l2.coerce, ptr %coerce.dive1, align 4
  store ptr %this, ptr %this.addr, align 8
  store ptr %j, ptr %j.addr, align 8
  %this2 = load ptr, ptr %this.addr, align 8
  %arrayinit.begin = getelementptr inbounds [2 x %"class.sat::literal"], ptr %ls, i64 0, i64 0
  call void @llvm.memcpy.p0.p0.i64(ptr align 4 %arrayinit.begin, ptr align 4 %l1, i64 4, i1 false)
  %arrayinit.element = getelementptr inbounds %"class.sat::literal", ptr %arrayinit.begin, i64 1
  call void @llvm.memcpy.p0.p0.i64(ptr align 4 %arrayinit.element, ptr align 4 %l2, i64 4, i1 false)
  %arraydecay = getelementptr inbounds [2 x %"class.sat::literal"], ptr %ls, i64 0, i64 0
  %0 = load ptr, ptr %j.addr, align 8
  %call = call noundef ptr @_ZN3smt7context9mk_clauseEjPN3sat7literalEPNS_13justificationENS_11clause_kindEPNS_13clause_del_ehE(ptr noundef nonnull align 8 dereferenceable(11616) %this2, i32 noundef 2, ptr noundef %arraydecay, ptr noundef %0, i32 noundef 0, ptr noundef null)
  ret void
}